; Function Attrs: mustprogress uwtable
define dso_local noundef nonnull align 8 dereferenceable(348) ptr @_ZN21cmGeneratedFileStream4OpenERKNSt7__cxx1112basic_stringIcSt11char_traitsIcESaIcEEEbb(ptr noundef nonnull returned align 8 dereferenceable(348) %0, ptr noundef nonnull align 8 dereferenceable(32) %1, i1 noundef zeroext %2, i1 noundef zeroext %3) local_unnamed_addr #3 align 2 personality ptr @__gxx_personality_v0 {
  %5 = alloca %"class.std::__cxx11::basic_string", align 8
  %6 = getelementptr inbounds i8, ptr %0, i64 248
  tail call void @_ZN25cmGeneratedFileStreamBase4OpenERKNSt7__cxx1112basic_stringIcSt11char_traitsIcESaIcEEE(ptr noundef nonnull align 8 dereferenceable(100) %6, ptr noundef nonnull align 8 dereferenceable(32) %1)
  %7 = getelementptr inbounds i8, ptr %0, i64 312
  %8 = tail call noundef ptr @_ZNKSt7__cxx1112basic_stringIcSt11char_traitsIcESaIcEE5c_strEv(ptr noundef nonnull align 8 dereferenceable(32) %7) #15
  %. = select i1 %3, i32 20, i32 16
  tail call void @_ZNSt14basic_ofstreamIcSt11char_traitsIcEE4openEPKcSt13_Ios_Openmode(ptr noundef nonnull align 8 dereferenceable(248) %0, ptr noundef %8, i32 noundef %.)
  %9 = load ptr, ptr %0, align 8
  %10 = getelementptr i8, ptr %9, i64 -24
  %11 = load i64, ptr %10, align 8
  %12 = getelementptr inbounds i8, ptr %0, i64 %11
  %13 = tail call noundef zeroext i1 @_ZNKSt9basic_iosIcSt11char_traitsIcEEntEv(ptr noundef nonnull align 8 dereferenceable(264) %12)
  %.not = xor i1 %13, true
  %brmerge = or i1 %.not, %2
  br i1 %brmerge, label %19, label %14

14:                                               ; preds = %4
  %15 = getelementptr inbounds i8, ptr %0, i64 312
  call void @_ZStplIcSt11char_traitsIcESaIcEENSt7__cxx1112basic_stringIT_T0_T1_EEPKS5_RKS8_(ptr dead_on_unwind nonnull writable sret(%"class.std::__cxx11::basic_string") align 8 %5, ptr noundef nonnull @.str, ptr noundef nonnull align 8 dereferenceable(32) %15)
  invoke void @_ZN13cmSystemTools5ErrorERKNSt7__cxx1112basic_stringIcSt11char_traitsIcESaIcEEE(ptr noundef nonnull align 8 dereferenceable(32) %5)
          to label %16 unwind label %17

16:                                               ; preds = %14
  call void @_ZNSt7__cxx1112basic_stringIcSt11char_traitsIcESaIcEED1Ev(ptr noundef nonnull align 8 dereferenceable(32) %5) #15
  call void @_ZN13cmSystemTools21ReportLastSystemErrorEPKc(ptr noundef nonnull @.str.1)
  br label %19

17:                                               ; preds = %14
  %18 = landingpad { ptr, i32 }
          cleanup
  call void @_ZNSt7__cxx1112basic_stringIcSt11char_traitsIcESaIcEED1Ev(ptr noundef nonnull align 8 dereferenceable(32) %5) #15
  resume { ptr, i32 } %18

19:                                               ; preds = %4, %16
  ret ptr %0
}